target datalayout = "e-m:e-p270:32:32-p271:32:32-p272:64:64-i64:64-i128:128-f80:128-n8:16:32:64-S128"
target triple = "x86_64-pc-linux-gnu"

%"class.std::__shared_count" = type { ptr }
%"class.cv::ccm::ColorCorrectionModel::Impl" = type { %"class.cv::Mat", %"class.std::shared_ptr", %"class.cv::Mat", ptr, %"class.cv::Mat", %"class.cv::Mat", %"class.cv::Mat", i32, i32, %"class.std::shared_ptr.0", i32, i32, %"class.cv::Mat", %"class.cv::Mat", %"class.cv::Mat", %"class.cv::Mat", double, i32, %"class.std::vector", i32, double, i32, double, i32, double }
%"class.std::shared_ptr" = type { %"class.std::__shared_ptr" }
%"class.std::__shared_ptr" = type { ptr, %"class.std::__shared_count" }
%"class.std::shared_ptr.0" = type { %"class.std::__shared_ptr.1" }
%"class.std::__shared_ptr.1" = type { ptr, %"class.std::__shared_count" }
%"class.cv::Mat" = type { i32, i32, i32, i32, ptr, ptr, ptr, ptr, ptr, ptr, %"struct.cv::MatSize", %"struct.cv::MatStep" }
%"struct.cv::MatSize" = type { ptr }
%"struct.cv::MatStep" = type { ptr, [2 x i64] }
%"class.std::vector" = type { %"struct.std::_Vector_base" }
%"struct.std::_Vector_base" = type { %"struct.std::_Vector_base<double, std::allocator<double>>::_Vector_impl" }
%"struct.std::_Vector_base<double, std::allocator<double>>::_Vector_impl" = type { %"struct.std::_Vector_base<double, std::allocator<double>>::_Vector_impl_data" }
%"struct.std::_Vector_base<double, std::allocator<double>>::_Vector_impl_data" = type { ptr, ptr, ptr }
%"class.cv::MatExpr" = type { ptr, i32, %"class.cv::Mat", %"class.cv::Mat", %"class.cv::Mat", double, double, %"class.cv::Scalar_" }
%"class.cv::Scalar_" = type { %"class.cv::Vec" }
%"class.cv::Vec" = type { %"class.cv::Matx" }
%"class.cv::Matx" = type { [4 x double] }
%"class.std::__cxx11::basic_string" = type { %"struct.std::__cxx11::basic_string<char>::_Alloc_hider", i64, %union.anon }
%"struct.std::__cxx11::basic_string<char>::_Alloc_hider" = type { ptr }
%union.anon = type { i64, [8 x i8] }
%"class.cv::ccm::IO" = type { ptr, %"class.std::__cxx11::basic_string", %"class.std::__cxx11::basic_string" }
%"class.cv::ccm::ColorSpace" = type { ptr, %"class.cv::ccm::IO", %"class.std::__cxx11::basic_string", i8, %"class.cv::ccm::Operations", %"class.cv::ccm::Operations", ptr, ptr }
%"class.cv::ccm::Operations" = type { ptr, %"class.std::vector.12" }
%"class.std::vector.12" = type { %"struct.std::_Vector_base.13" }
%"struct.std::_Vector_base.13" = type { %"struct.std::_Vector_base<cv::ccm::Operation, std::allocator<cv::ccm::Operation>>::_Vector_impl" }
%"struct.std::_Vector_base<cv::ccm::Operation, std::allocator<cv::ccm::Operation>>::_Vector_impl" = type { %"struct.std::_Vector_base<cv::ccm::Operation, std::allocator<cv::ccm::Operation>>::_Vector_impl_data" }
%"struct.std::_Vector_base<cv::ccm::Operation, std::allocator<cv::ccm::Operation>>::_Vector_impl_data" = type { ptr, ptr, ptr }
%"class.cv::ccm::Color" = type { ptr, %"class.cv::Mat", ptr, %"class.cv::Mat", %"class.cv::Mat", %"class.std::map.23" }
%"class.std::map.23" = type { %"class.std::_Rb_tree.24" }
%"class.std::_Rb_tree.24" = type { %"struct.std::_Rb_tree<cv::ccm::ColorSpace, std::pair<const cv::ccm::ColorSpace, std::shared_ptr<cv::ccm::Color>>, std::_Select1st<std::pair<const cv::ccm::ColorSpace, std::shared_ptr<cv::ccm::Color>>>, std::less<cv::ccm::ColorSpace>>::_Rb_tree_impl" }
%"struct.std::_Rb_tree<cv::ccm::ColorSpace, std::pair<const cv::ccm::ColorSpace, std::shared_ptr<cv::ccm::Color>>, std::_Select1st<std::pair<const cv::ccm::ColorSpace, std::shared_ptr<cv::ccm::Color>>>, std::less<cv::ccm::ColorSpace>>::_Rb_tree_impl" = type { [8 x i8], %"struct.std::_Rb_tree_header" }
%"struct.std::_Rb_tree_header" = type { %"struct.std::_Rb_tree_node_base", i64 }
%"struct.std::_Rb_tree_node_base" = type { i32, ptr, ptr, ptr }

; Function Attrs: inlinehint mustprogress uwtable
define linkonce_odr hidden void @_ZNK2cv7MatExprcvNS_3MatEEv(ptr dead_on_unwind noalias writable sret(%"class.cv::Mat") align 8 %0, ptr noundef nonnull align 8 dereferenceable(352) %1) #2 comdat align 2 personality ptr @__gxx_personality_v0 {
  %3 = alloca ptr, align 8
  %4 = alloca ptr, align 8
  %5 = alloca i1, align 1
  %6 = alloca ptr, align 8
  %7 = alloca i32, align 4
  store ptr %0, ptr %3, align 8
  store ptr %1, ptr %4, align 8, !tbaa !72
  %8 = load ptr, ptr %4, align 8
  store i1 false, ptr %5, align 1
  call void @_ZN2cv3MatC1Ev(ptr noundef nonnull align 8 dereferenceable(96) %0) #19
  %9 = getelementptr inbounds nuw %"class.cv::MatExpr", ptr %8, i32 0, i32 0
  %10 = load ptr, ptr %9, align 8, !tbaa !74
  %11 = load ptr, ptr %10, align 8, !tbaa !80
  %12 = getelementptr inbounds ptr, ptr %11, i64 3
  %13 = load ptr, ptr %12, align 8
  invoke void %13(ptr noundef nonnull align 8 dereferenceable(8) %10, ptr noundef nonnull align 8 dereferenceable(352) %8, ptr noundef nonnull align 8 dereferenceable(96) %0, i32 noundef -1)
          to label %14 unwind label %16

14:                                               ; preds = %2
  store i1 true, ptr %5, align 1
  %15 = load i1, ptr %5, align 1
  br i1 %15, label %21, label %20

16:                                               ; preds = %2
  %17 = landingpad { ptr, i32 }
          cleanup
  %18 = extractvalue { ptr, i32 } %17, 0
  store ptr %18, ptr %6, align 8
  %19 = extractvalue { ptr, i32 } %17, 1
  store i32 %19, ptr %7, align 4
  call void @_ZN2cv3MatD1Ev(ptr noundef nonnull align 8 dereferenceable(96) %0) #19
  br label %22

20:                                               ; preds = %14
  call void @_ZN2cv3MatD1Ev(ptr noundef nonnull align 8 dereferenceable(96) %0) #19
  br label %21

21:                                               ; preds = %20, %14
  ret void

22:                                               ; preds = %16
  %23 = load ptr, ptr %6, align 8
  %24 = load i32, ptr %7, align 4
  %25 = insertvalue { ptr, i32 } poison, ptr %23, 0
  %26 = insertvalue { ptr, i32 } %25, i32 %24, 1
  resume { ptr, i32 } %26
}

; Function Attrs: mustprogress uwtable
define noundef double @_ZN2cv3ccm20ColorCorrectionModel4Impl9calc_lossENS_3MatE(ptr noundef nonnull align 8 dereferenceable(1008) %0, ptr noundef %1) #0 align 2 personality ptr @__gxx_personality_v0 {
  %3 = alloca ptr, align 8
  %4 = alloca ptr, align 8
  %5 = alloca %"class.cv::Mat", align 8
  %6 = alloca %"class.cv::MatExpr", align 8
  %7 = alloca %"class.cv::Mat", align 8
  %8 = alloca ptr, align 8
  %9 = alloca i32, align 4
  %10 = alloca %"class.cv::ccm::Color", align 8
  %11 = alloca %"class.cv::Mat", align 8
  %12 = alloca %"class.cv::ccm::Color", align 8
  store ptr %0, ptr %3, align 8, !tbaa !3
  store ptr %1, ptr %4, align 8, !tbaa !62
  %13 = load ptr, ptr %3, align 8
  call void @llvm.lifetime.start.p0(i64 96, ptr %5) #19
  call void @llvm.lifetime.start.p0(i64 352, ptr %6) #19
  call void @llvm.lifetime.start.p0(i64 96, ptr %7) #19
  %14 = getelementptr inbounds nuw %"class.cv::ccm::ColorCorrectionModel::Impl", ptr %13, i32 0, i32 5
  call void @_ZNK2cv3Mat7reshapeEii(ptr dead_on_unwind writable sret(%"class.cv::Mat") align 8 %7, ptr noundef nonnull align 8 dereferenceable(96) %14, i32 noundef 1, i32 noundef 0)
  invoke void @_ZN2cvmlERKNS_3MatES2_(ptr dead_on_unwind writable sret(%"class.cv::MatExpr") align 8 %6, ptr noundef nonnull align 8 dereferenceable(96) %7, ptr noundef nonnull align 8 dereferenceable(96) %1)
          to label %15 unwind label %26

15:                                               ; preds = %2
  invoke void @_ZNK2cv7MatExprcvNS_3MatEEv(ptr dead_on_unwind writable sret(%"class.cv::Mat") align 8 %5, ptr noundef nonnull align 8 dereferenceable(352) %6)
          to label %16 unwind label %30

16:                                               ; preds = %15
  call void @_ZN2cv7MatExprD2Ev(ptr noundef nonnull align 8 dereferenceable(352) %6) #19
  call void @_ZN2cv3MatD1Ev(ptr noundef nonnull align 8 dereferenceable(96) %7) #19
  call void @llvm.lifetime.end.p0(i64 96, ptr %7) #19
  call void @llvm.lifetime.end.p0(i64 352, ptr %6) #19
  call void @llvm.lifetime.start.p0(i64 352, ptr %10) #19
  invoke void @_ZNK2cv3Mat7reshapeEii(ptr dead_on_unwind writable sret(%"class.cv::Mat") align 8 %11, ptr noundef nonnull align 8 dereferenceable(96) %5, i32 noundef 3, i32 noundef 0)
          to label %17 unwind label %35

17:                                               ; preds = %16
  %18 = getelementptr inbounds nuw %"class.cv::ccm::ColorCorrectionModel::Impl", ptr %13, i32 0, i32 3
  %19 = load ptr, ptr %18, align 8, !tbaa !100
  %20 = getelementptr inbounds nuw %"class.cv::ccm::ColorSpace", ptr %19, i32 0, i32 6
  %21 = load ptr, ptr %20, align 8, !tbaa !136
  invoke void @_ZN2cv3ccm5ColorC1ENS_3MatERKNS0_10ColorSpaceE(ptr noundef nonnull align 8 dereferenceable(352) %10, ptr noundef %11, ptr noundef nonnull align 8 dereferenceable(200) %21)
          to label %22 unwind label %39

22:                                               ; preds = %17
  call void @_ZN2cv3MatD1Ev(ptr noundef nonnull align 8 dereferenceable(96) %11) #19
  invoke void @_ZN2cv3ccm5ColorC2ERKS1_(ptr noundef nonnull align 8 dereferenceable(352) %12, ptr noundef nonnull align 8 dereferenceable(352) %10)
          to label %23 unwind label %43

23:                                               ; preds = %22
  %24 = invoke noundef double @_ZN2cv3ccm20ColorCorrectionModel4Impl10calc_loss_ENS0_5ColorE(ptr noundef nonnull align 8 dereferenceable(1008) %13, ptr noundef %12)
          to label %25 unwind label %47

25:                                               ; preds = %23
  call void @_ZN2cv3ccm5ColorD2Ev(ptr noundef nonnull align 8 dereferenceable(352) %12) #19
  call void @_ZN2cv3ccm5ColorD2Ev(ptr noundef nonnull align 8 dereferenceable(352) %10) #19
  call void @llvm.lifetime.end.p0(i64 352, ptr %10) #19
  call void @_ZN2cv3MatD1Ev(ptr noundef nonnull align 8 dereferenceable(96) %5) #19
  call void @llvm.lifetime.end.p0(i64 96, ptr %5) #19
  ret double %24

26:                                               ; preds = %2
  %27 = landingpad { ptr, i32 }
          cleanup
  %28 = extractvalue { ptr, i32 } %27, 0
  store ptr %28, ptr %8, align 8
  %29 = extractvalue { ptr, i32 } %27, 1
  store i32 %29, ptr %9, align 4
  br label %34

30:                                               ; preds = %15
  %31 = landingpad { ptr, i32 }
          cleanup
  %32 = extractvalue { ptr, i32 } %31, 0
  store ptr %32, ptr %8, align 8
  %33 = extractvalue { ptr, i32 } %31, 1
  store i32 %33, ptr %9, align 4
  call void @_ZN2cv7MatExprD2Ev(ptr noundef nonnull align 8 dereferenceable(352) %6) #19
  br label %34

34:                                               ; preds = %30, %26
  call void @_ZN2cv3MatD1Ev(ptr noundef nonnull align 8 dereferenceable(96) %7) #19
  call void @llvm.lifetime.end.p0(i64 96, ptr %7) #19
  call void @llvm.lifetime.end.p0(i64 352, ptr %6) #19
  br label %53

35:                                               ; preds = %16
  %36 = landingpad { ptr, i32 }
          cleanup
  %37 = extractvalue { ptr, i32 } %36, 0
  store ptr %37, ptr %8, align 8
  %38 = extractvalue { ptr, i32 } %36, 1
  store i32 %38, ptr %9, align 4
  br label %52

39:                                               ; preds = %17
  %40 = landingpad { ptr, i32 }
          cleanup
  %41 = extractvalue { ptr, i32 } %40, 0
  store ptr %41, ptr %8, align 8
  %42 = extractvalue { ptr, i32 } %40, 1
  store i32 %42, ptr %9, align 4
  call void @_ZN2cv3MatD1Ev(ptr noundef nonnull align 8 dereferenceable(96) %11) #19
  br label %52

43:                                               ; preds = %22
  %44 = landingpad { ptr, i32 }
          cleanup
  %45 = extractvalue { ptr, i32 } %44, 0
  store ptr %45, ptr %8, align 8
  %46 = extractvalue { ptr, i32 } %44, 1
  store i32 %46, ptr %9, align 4
  br label %51

47:                                               ; preds = %23
  %48 = landingpad { ptr, i32 }
          cleanup
  %49 = extractvalue { ptr, i32 } %48, 0
  store ptr %49, ptr %8, align 8
  %50 = extractvalue { ptr, i32 } %48, 1
  store i32 %50, ptr %9, align 4
  call void @_ZN2cv3ccm5ColorD2Ev(ptr noundef nonnull align 8 dereferenceable(352) %12) #19
  br label %51

51:                                               ; preds = %47, %43
  call void @_ZN2cv3ccm5ColorD2Ev(ptr noundef nonnull align 8 dereferenceable(352) %10) #19
  br label %52

52:                                               ; preds = %51, %39, %35
  call void @llvm.lifetime.end.p0(i64 352, ptr %10) #19
  call void @_ZN2cv3MatD1Ev(ptr noundef nonnull align 8 dereferenceable(96) %5) #19
  br label %53

53:                                               ; preds = %52, %34
  call void @llvm.lifetime.end.p0(i64 96, ptr %5) #19
  br label %54

54:                                               ; preds = %53
  %55 = load ptr, ptr %8, align 8
  %56 = load i32, ptr %9, align 4
  %57 = insertvalue { ptr, i32 } poison, ptr %55, 0
  %58 = insertvalue { ptr, i32 } %57, i32 %56, 1
  resume { ptr, i32 } %58
}