; Function Attrs: mustprogress uwtable
define noundef double @_ZN2cv3ccm20ColorCorrectionModel4Impl9calc_lossENS_3MatE(ptr noundef nonnull align 8 dereferenceable(1008) %0, ptr noundef %1) local_unnamed_addr #0 align 2 personality ptr @__gxx_personality_v0 {
  %3 = alloca %"class.cv::Mat", align 8
  %4 = alloca %"class.cv::MatExpr", align 8
  %5 = alloca %"class.cv::Mat", align 8
  %6 = alloca %"class.cv::ccm::Color", align 8
  %7 = alloca %"class.cv::Mat", align 8
  %8 = alloca %"class.cv::ccm::Color", align 8
  call void @llvm.lifetime.start.p0(i64 96, ptr nonnull %3) #21
  call void @llvm.lifetime.start.p0(i64 352, ptr nonnull %4) #21
  call void @llvm.lifetime.start.p0(i64 96, ptr nonnull %5) #21
  %9 = getelementptr inbounds nuw i8, ptr %0, i64 312
  call void @_ZNK2cv3Mat7reshapeEii(ptr dead_on_unwind nonnull writable sret(%"class.cv::Mat") align 8 %5, ptr noundef nonnull align 8 dereferenceable(96) %9, i32 noundef 1, i32 noundef 0)
  invoke void @_ZN2cvmlERKNS_3MatES2_(ptr dead_on_unwind nonnull writable sret(%"class.cv::MatExpr") align 8 %4, ptr noundef nonnull align 8 dereferenceable(96) %5, ptr noundef nonnull align 8 dereferenceable(96) %1)
          to label %10 unwind label %46

10:                                               ; preds = %2
  call void @_ZN2cv3MatC1Ev(ptr noundef nonnull align 8 dereferenceable(96) %3) #21
  %11 = load ptr, ptr %4, align 8, !tbaa !70, !noalias !121
  %12 = load ptr, ptr %11, align 8, !tbaa !18
  %13 = getelementptr inbounds nuw i8, ptr %12, i64 24
  %14 = load ptr, ptr %13, align 8
  invoke void %14(ptr noundef nonnull align 8 dereferenceable(8) %11, ptr noundef nonnull align 8 dereferenceable(352) %4, ptr noundef nonnull align 8 dereferenceable(96) %3, i32 noundef -1)
          to label %_ZNK2cv7MatExprcvNS_3MatEEv.exit unwind label %.body

.body:                                            ; preds = %10
  %15 = landingpad { ptr, i32 }
          cleanup
  call void @_ZN2cv3MatD1Ev(ptr noundef nonnull align 8 dereferenceable(96) %3) #21
  call void @_ZN2cv7MatExprD2Ev(ptr noundef nonnull align 8 dereferenceable(352) %4) #21
  br label %48

_ZNK2cv7MatExprcvNS_3MatEEv.exit:                 ; preds = %10
  %16 = getelementptr inbounds nuw i8, ptr %4, i64 208
  call void @_ZN2cv3MatD1Ev(ptr noundef nonnull align 8 dereferenceable(96) %16) #21
  %17 = getelementptr inbounds nuw i8, ptr %4, i64 112
  call void @_ZN2cv3MatD1Ev(ptr noundef nonnull align 8 dereferenceable(96) %17) #21
  %18 = getelementptr inbounds nuw i8, ptr %4, i64 16
  call void @_ZN2cv3MatD1Ev(ptr noundef nonnull align 8 dereferenceable(96) %18) #21
  call void @_ZN2cv3MatD1Ev(ptr noundef nonnull align 8 dereferenceable(96) %5) #21
  call void @llvm.lifetime.end.p0(i64 96, ptr nonnull %5) #21
  call void @llvm.lifetime.end.p0(i64 352, ptr nonnull %4) #21
  call void @llvm.lifetime.start.p0(i64 352, ptr nonnull %6) #21
  invoke void @_ZNK2cv3Mat7reshapeEii(ptr dead_on_unwind nonnull writable sret(%"class.cv::Mat") align 8 %7, ptr noundef nonnull align 8 dereferenceable(96) %3, i32 noundef 3, i32 noundef 0)
          to label %19 unwind label %49

19:                                               ; preds = %_ZNK2cv7MatExprcvNS_3MatEEv.exit
  %20 = getelementptr inbounds nuw i8, ptr %0, i64 208
  %21 = load ptr, ptr %20, align 8, !tbaa !98
  %22 = getelementptr inbounds nuw i8, ptr %21, i64 184
  %23 = load ptr, ptr %22, align 8, !tbaa !124
  invoke void @_ZN2cv3ccm5ColorC1ENS_3MatERKNS0_10ColorSpaceE(ptr noundef nonnull align 8 dereferenceable(352) %6, ptr noundef nonnull %7, ptr noundef nonnull align 8 dereferenceable(200) %23)
          to label %24 unwind label %51

24:                                               ; preds = %19
  call void @_ZN2cv3MatD1Ev(ptr noundef nonnull align 8 dereferenceable(96) %7) #21
  invoke void @_ZN2cv3ccm5ColorC2ERKS1_(ptr noundef nonnull align 8 dereferenceable(352) %8, ptr noundef nonnull align 8 dereferenceable(352) %6)
          to label %25 unwind label %53

25:                                               ; preds = %24
  %26 = invoke noundef double @_ZN2cv3ccm20ColorCorrectionModel4Impl10calc_loss_ENS0_5ColorE(ptr noundef nonnull align 8 dereferenceable(1008) %0, ptr noundef nonnull %8)
          to label %27 unwind label %55

27:                                               ; preds = %25
  store ptr getelementptr inbounds nuw inrange(-16, 16) (i8, ptr @_ZTVN2cv3ccm5ColorE, i64 16), ptr %8, align 8, !tbaa !18
  %28 = getelementptr inbounds nuw i8, ptr %8, i64 304
  %29 = getelementptr inbounds nuw i8, ptr %8, i64 320
  %30 = load ptr, ptr %29, align 8, !tbaa !116
  invoke void @_ZNSt8_Rb_treeIN2cv3ccm10ColorSpaceESt4pairIKS2_St10shared_ptrINS1_5ColorEEESt10_Select1stIS8_ESt4lessIS2_ESaIS8_EE8_M_eraseEPSt13_Rb_tree_nodeIS8_E(ptr noundef nonnull align 8 dereferenceable(48) %28, ptr noundef %30)
          to label %_ZN2cv3ccm5ColorD2Ev.exit unwind label %31

31:                                               ; preds = %27
  %32 = landingpad { ptr, i32 }
          catch ptr null
  %33 = extractvalue { ptr, i32 } %32, 0
  call void @__clang_call_terminate(ptr %33) #25
  unreachable

_ZN2cv3ccm5ColorD2Ev.exit:                        ; preds = %27
  %34 = getelementptr inbounds nuw i8, ptr %8, i64 208
  call void @_ZN2cv3MatD1Ev(ptr noundef nonnull align 8 dereferenceable(96) %34) #21
  %35 = getelementptr inbounds nuw i8, ptr %8, i64 112
  call void @_ZN2cv3MatD1Ev(ptr noundef nonnull align 8 dereferenceable(96) %35) #21
  %36 = getelementptr inbounds nuw i8, ptr %8, i64 8
  call void @_ZN2cv3MatD1Ev(ptr noundef nonnull align 8 dereferenceable(96) %36) #21
  store ptr getelementptr inbounds nuw inrange(-16, 16) (i8, ptr @_ZTVN2cv3ccm5ColorE, i64 16), ptr %6, align 8, !tbaa !18
  %37 = getelementptr inbounds nuw i8, ptr %6, i64 304
  %38 = getelementptr inbounds nuw i8, ptr %6, i64 320
  %39 = load ptr, ptr %38, align 8, !tbaa !116
  invoke void @_ZNSt8_Rb_treeIN2cv3ccm10ColorSpaceESt4pairIKS2_St10shared_ptrINS1_5ColorEEESt10_Select1stIS8_ESt4lessIS2_ESaIS8_EE8_M_eraseEPSt13_Rb_tree_nodeIS8_E(ptr noundef nonnull align 8 dereferenceable(48) %37, ptr noundef %39)
          to label %_ZN2cv3ccm5ColorD2Ev.exit11 unwind label %40

40:                                               ; preds = %_ZN2cv3ccm5ColorD2Ev.exit
  %41 = landingpad { ptr, i32 }
          catch ptr null
  %42 = extractvalue { ptr, i32 } %41, 0
  call void @__clang_call_terminate(ptr %42) #25
  unreachable

_ZN2cv3ccm5ColorD2Ev.exit11:                      ; preds = %_ZN2cv3ccm5ColorD2Ev.exit
  %43 = getelementptr inbounds nuw i8, ptr %6, i64 208
  call void @_ZN2cv3MatD1Ev(ptr noundef nonnull align 8 dereferenceable(96) %43) #21
  %44 = getelementptr inbounds nuw i8, ptr %6, i64 112
  call void @_ZN2cv3MatD1Ev(ptr noundef nonnull align 8 dereferenceable(96) %44) #21
  %45 = getelementptr inbounds nuw i8, ptr %6, i64 8
  call void @_ZN2cv3MatD1Ev(ptr noundef nonnull align 8 dereferenceable(96) %45) #21
  call void @llvm.lifetime.end.p0(i64 352, ptr nonnull %6) #21
  call void @_ZN2cv3MatD1Ev(ptr noundef nonnull align 8 dereferenceable(96) %3) #21
  call void @llvm.lifetime.end.p0(i64 96, ptr nonnull %3) #21
  ret double %26

46:                                               ; preds = %2
  %47 = landingpad { ptr, i32 }
          cleanup
  br label %48

48:                                               ; preds = %.body, %46
  %.pn = phi { ptr, i32 } [ %15, %.body ], [ %47, %46 ]
  call void @_ZN2cv3MatD1Ev(ptr noundef nonnull align 8 dereferenceable(96) %5) #21
  call void @llvm.lifetime.end.p0(i64 96, ptr nonnull %5) #21
  call void @llvm.lifetime.end.p0(i64 352, ptr nonnull %4) #21
  br label %59

49:                                               ; preds = %_ZNK2cv7MatExprcvNS_3MatEEv.exit
  %50 = landingpad { ptr, i32 }
          cleanup
  br label %58

51:                                               ; preds = %19
  %52 = landingpad { ptr, i32 }
          cleanup
  call void @_ZN2cv3MatD1Ev(ptr noundef nonnull align 8 dereferenceable(96) %7) #21
  br label %58

53:                                               ; preds = %24
  %54 = landingpad { ptr, i32 }
          cleanup
  br label %57

55:                                               ; preds = %25
  %56 = landingpad { ptr, i32 }
          cleanup
  call void @_ZN2cv3ccm5ColorD2Ev(ptr noundef nonnull align 8 dereferenceable(352) %8) #21
  br label %57

57:                                               ; preds = %55, %53
  %.pn7 = phi { ptr, i32 } [ %56, %55 ], [ %54, %53 ]
  call void @_ZN2cv3ccm5ColorD2Ev(ptr noundef nonnull align 8 dereferenceable(352) %6) #21
  br label %58

58:                                               ; preds = %57, %51, %49
  %.pn7.pn = phi { ptr, i32 } [ %.pn7, %57 ], [ %52, %51 ], [ %50, %49 ]
  call void @llvm.lifetime.end.p0(i64 352, ptr nonnull %6) #21
  call void @_ZN2cv3MatD1Ev(ptr noundef nonnull align 8 dereferenceable(96) %3) #21
  br label %59

59:                                               ; preds = %58, %48
  %.pn7.pn.pn = phi { ptr, i32 } [ %.pn7.pn, %58 ], [ %.pn, %48 ]
  call void @llvm.lifetime.end.p0(i64 96, ptr nonnull %3) #21
  resume { ptr, i32 } %.pn7.pn.pn
}